   1               		.file	"VoltageStatistics.cpp"
   2               	__SP_H__ = 0x3e
   3               	__SP_L__ = 0x3d
   4               	__SREG__ = 0x3f
   5               	__tmp_reg__ = 0
   6               	__zero_reg__ = 1
   7               		.text
   8               	.Ltext0:
   9               		.cfi_sections	.debug_frame
  10               	.global	_ZN17VoltageStatisticsC2Ev
  12               	_ZN17VoltageStatisticsC2Ev:
  13               	.LVL0:
  14               	.LFB13:
  15               		.file 1 "VoltageStatistics.cpp"
   1:VoltageStatistics.cpp **** #include "VoltageStatistics.h"
   2:VoltageStatistics.cpp **** 
   3:VoltageStatistics.cpp **** 
   4:VoltageStatistics.cpp **** VoltageStatistics::VoltageStatistics()
  16               		.loc 1 4 1 view -0
  17               		.cfi_startproc
  18               	/* prologue: function */
  19               	/* frame size = 0 */
  20               	/* stack size = 0 */
  21               	.L__stack_usage = 0
  22               	.LBB2:
   5:VoltageStatistics.cpp **** {
   6:VoltageStatistics.cpp **** 	memset(values,0,sizeof(values));
  23               		.loc 1 6 2 view .LVU1
  24               		.loc 1 6 8 is_stmt 0 view .LVU2
  25 0000 24E1      		ldi r18,lo8(20)
  26 0002 FC01      		movw r30,r24
  27               		0:
  28 0004 1192      		st Z+,__zero_reg__
  29 0006 2A95      		dec r18
  30 0008 01F4      		brne 0b
  31               	/* epilogue start */
  32               	.LBE2:
   7:VoltageStatistics.cpp **** }
  33               		.loc 1 7 1 view .LVU3
  34 000a 0895      		ret
  35               		.cfi_endproc
  36               	.LFE13:
  38               	.global	_ZN17VoltageStatisticsC1Ev
  39               		.set	_ZN17VoltageStatisticsC1Ev,_ZN17VoltageStatisticsC2Ev
  40               	.global	_ZN17VoltageStatistics9readValueEh
  42               	_ZN17VoltageStatistics9readValueEh:
  43               	.LVL1:
  44               	.LFB15:
   8:VoltageStatistics.cpp **** 
   9:VoltageStatistics.cpp **** uint16_t VoltageStatistics::readValue(uint8_t kanal)
  10:VoltageStatistics.cpp **** {
  45               		.loc 1 10 1 is_stmt 1 view -0
  46               		.cfi_startproc
  47               		.loc 1 10 1 is_stmt 0 view .LVU5
  48 000c CF93      		push r28
  49               	.LCFI0:
  50               		.cfi_def_cfa_offset 3
  51               		.cfi_offset 28, -2
  52 000e DF93      		push r29
  53               	.LCFI1:
  54               		.cfi_def_cfa_offset 4
  55               		.cfi_offset 29, -3
  56 0010 0F92      		push __tmp_reg__
  57               	.LCFI2:
  58               		.cfi_def_cfa_offset 5
  59 0012 CDB7      		in r28,__SP_L__
  60 0014 DEB7      		in r29,__SP_H__
  61               	.LCFI3:
  62               		.cfi_def_cfa_register 28
  63               	/* prologue: function */
  64               	/* frame size = 1 */
  65               	/* stack size = 3 */
  66               	.L__stack_usage = 3
  11:VoltageStatistics.cpp ****   ADC_read pin(kanal);
  67               		.loc 1 11 3 is_stmt 1 view .LVU6
  68               		.loc 1 11 21 is_stmt 0 view .LVU7
  69 0016 CE01      		movw r24,r28
  70               	.LVL2:
  71               		.loc 1 11 21 view .LVU8
  72 0018 0196      		adiw r24,1
  73 001a 0E94 0000 		call _ZN8ADC_readC1Eh
  74               	.LVL3:
  12:VoltageStatistics.cpp ****   return (pin.adcwert()); // ADC in Pin kanal
  75               		.loc 1 12 3 is_stmt 1 view .LVU9
  76               		.loc 1 12 22 is_stmt 0 view .LVU10
  77 001e CE01      		movw r24,r28
  78 0020 0196      		adiw r24,1
  79 0022 0E94 0000 		call _ZN8ADC_read7adcwertEv
  80               	.LVL4:
  81               	/* epilogue start */
  13:VoltageStatistics.cpp **** 
  14:VoltageStatistics.cpp **** }
  82               		.loc 1 14 1 view .LVU11
  83 0026 0F90      		pop __tmp_reg__
  84 0028 DF91      		pop r29
  85 002a CF91      		pop r28
  86 002c 0895      		ret
  87               		.cfi_endproc
  88               	.LFE15:
  90               	.global	_ZN17VoltageStatistics19convertMilliVoltageEj
  92               	_ZN17VoltageStatistics19convertMilliVoltageEj:
  93               	.LVL5:
  94               	.LFB16:
  15:VoltageStatistics.cpp **** 
  16:VoltageStatistics.cpp **** uint16_t VoltageStatistics::convertMilliVoltage(uint16_t value)
  17:VoltageStatistics.cpp **** {
  95               		.loc 1 17 1 is_stmt 1 view -0
  96               		.cfi_startproc
  97               		.loc 1 17 1 is_stmt 0 view .LVU13
  98 002e CF93      		push r28
  99               	.LCFI4:
 100               		.cfi_def_cfa_offset 3
 101               		.cfi_offset 28, -2
 102 0030 DF93      		push r29
 103               	.LCFI5:
 104               		.cfi_def_cfa_offset 4
 105               		.cfi_offset 29, -3
 106 0032 00D0      		rcall .
 107 0034 00D0      		rcall .
 108               	.LCFI6:
 109               		.cfi_def_cfa_offset 8
 110 0036 CDB7      		in r28,__SP_L__
 111 0038 DEB7      		in r29,__SP_H__
 112               	.LCFI7:
 113               		.cfi_def_cfa_register 28
 114               	/* prologue: function */
 115               	/* frame size = 4 */
 116               	/* stack size = 6 */
 117               	.L__stack_usage = 6
 118 003a 9B01      		movw r18,r22
  18:VoltageStatistics.cpp ****   return((((1000UL*refVoltage*value)/adc_steps)));
 119               		.loc 1 18 3 is_stmt 1 view .LVU14
 120               		.loc 1 18 30 is_stmt 0 view .LVU15
 121 003c A8E8      		ldi r26,lo8(-120)
 122 003e B3E1      		ldi r27,lo8(19)
 123 0040 0E94 0000 		call __umulhisi3
 124               	.LVL6:
 125               		.loc 1 18 37 view .LVU16
 126 0044 DC01      		movw r26,r24
 127 0046 CB01      		movw r24,r22
 128               	.LVL7:
 129               		.loc 1 18 37 view .LVU17
 130 0048 2AE0      		ldi r18,10
 131               		1:
 132 004a B695      		lsr r27
 133 004c A795      		ror r26
 134 004e 9795      		ror r25
 135 0050 8795      		ror r24
 136 0052 2A95      		dec r18
 137 0054 01F4      		brne 1b
 138               	.LVL8:
 139               	/* epilogue start */
  19:VoltageStatistics.cpp **** 
  20:VoltageStatistics.cpp **** }
 140               		.loc 1 20 1 view .LVU18
 141 0056 0F90      		pop __tmp_reg__
 142 0058 0F90      		pop __tmp_reg__
 143 005a 0F90      		pop __tmp_reg__
 144 005c 0F90      		pop __tmp_reg__
 145 005e DF91      		pop r29
 146 0060 CF91      		pop r28
 147 0062 0895      		ret
 148               		.cfi_endproc
 149               	.LFE16:
 151               		.section	.rodata.str1.1,"aMS",@progbits,1
 152               	.LC0:
 153 0000 256C 6420 		.string	"%ld ms: 0x%x - - %d \n\r"
 153      6D73 3A20 
 153      3078 2578 
 153      202D 202D 
 153      2025 6420 
 154               	.LC1:
 155 0017 256C 6420 		.string	"%ld ms: 0x%x \n\r"
 155      6D73 3A20 
 155      3078 2578 
 155      200A 0D00 
 156               		.text
 157               	.global	_ZN17VoltageStatistics15sendCanMessagesEbP5can_tjm
 159               	_ZN17VoltageStatistics15sendCanMessagesEbP5can_tjm:
 160               	.LVL9:
 161               	.LFB17:
  21:VoltageStatistics.cpp **** 
  22:VoltageStatistics.cpp **** bool VoltageStatistics::sendCanMessages(bool activ, can_t* send, uint16_t lastValue,uint32_t Zeitst
  23:VoltageStatistics.cpp **** {  
 162               		.loc 1 23 1 is_stmt 1 view -0
 163               		.cfi_startproc
 164               		.loc 1 23 1 is_stmt 0 view .LVU20
 165 0064 5F92      		push r5
 166               	.LCFI8:
 167               		.cfi_def_cfa_offset 3
 168               		.cfi_offset 5, -2
 169 0066 6F92      		push r6
 170               	.LCFI9:
 171               		.cfi_def_cfa_offset 4
 172               		.cfi_offset 6, -3
 173 0068 7F92      		push r7
 174               	.LCFI10:
 175               		.cfi_def_cfa_offset 5
 176               		.cfi_offset 7, -4
 177 006a 8F92      		push r8
 178               	.LCFI11:
 179               		.cfi_def_cfa_offset 6
 180               		.cfi_offset 8, -5
 181 006c 9F92      		push r9
 182               	.LCFI12:
 183               		.cfi_def_cfa_offset 7
 184               		.cfi_offset 9, -6
 185 006e AF92      		push r10
 186               	.LCFI13:
 187               		.cfi_def_cfa_offset 8
 188               		.cfi_offset 10, -7
 189 0070 BF92      		push r11
 190               	.LCFI14:
 191               		.cfi_def_cfa_offset 9
 192               		.cfi_offset 11, -8
 193 0072 CF92      		push r12
 194               	.LCFI15:
 195               		.cfi_def_cfa_offset 10
 196               		.cfi_offset 12, -9
 197 0074 DF92      		push r13
 198               	.LCFI16:
 199               		.cfi_def_cfa_offset 11
 200               		.cfi_offset 13, -10
 201 0076 EF92      		push r14
 202               	.LCFI17:
 203               		.cfi_def_cfa_offset 12
 204               		.cfi_offset 14, -11
 205 0078 FF92      		push r15
 206               	.LCFI18:
 207               		.cfi_def_cfa_offset 13
 208               		.cfi_offset 15, -12
 209 007a 0F93      		push r16
 210               	.LCFI19:
 211               		.cfi_def_cfa_offset 14
 212               		.cfi_offset 16, -13
 213 007c 1F93      		push r17
 214               	.LCFI20:
 215               		.cfi_def_cfa_offset 15
 216               		.cfi_offset 17, -14
 217 007e CF93      		push r28
 218               	.LCFI21:
 219               		.cfi_def_cfa_offset 16
 220               		.cfi_offset 28, -15
 221 0080 DF93      		push r29
 222               	.LCFI22:
 223               		.cfi_def_cfa_offset 17
 224               		.cfi_offset 29, -16
 225 0082 CDB7      		in r28,__SP_L__
 226 0084 DEB7      		in r29,__SP_H__
 227               	.LCFI23:
 228               		.cfi_def_cfa_register 28
 229 0086 CB56      		subi r28,107
 230 0088 D109      		sbc r29,__zero_reg__
 231               	.LCFI24:
 232               		.cfi_def_cfa_offset 124
 233 008a 0FB6      		in __tmp_reg__,__SREG__
 234 008c F894      		cli
 235 008e DEBF      		out __SP_H__,r29
 236 0090 0FBE      		out __SREG__,__tmp_reg__
 237 0092 CDBF      		out __SP_L__,r28
 238               	/* prologue: function */
 239               	/* frame size = 107 */
 240               	/* stack size = 122 */
 241               	.L__stack_usage = 122
 242 0094 B62E      		mov r11,r22
 243 0096 6A01      		movw r12,r20
 244 0098 622E      		mov r6,r18
 245 009a 532E      		mov r5,r19
 246 009c AE2C      		mov r10,r14
 247 009e 9F2C      		mov r9,r15
 248 00a0 802E      		mov r8,r16
 249 00a2 712E      		mov r7,r17
  24:VoltageStatistics.cpp **** 
  25:VoltageStatistics.cpp ****    USART UART(8,0,1,57600);	// USART init 8 Zeichenbits , keien Paritätsbits , 1 Stoppbit, 9600 Ze
 250               		.loc 1 25 4 is_stmt 1 view .LVU21
 251               		.loc 1 25 26 is_stmt 0 view .LVU22
 252 00a4 E12C      		mov r14,__zero_reg__
 253 00a6 11EE      		ldi r17,lo8(-31)
 254 00a8 F12E      		mov r15,r17
 255 00aa 00E0      		ldi r16,0
 256 00ac 10E0      		ldi r17,0
 257               	.LVL10:
 258               		.loc 1 25 26 view .LVU23
 259 00ae 21E0      		ldi r18,lo8(1)
 260               	.LVL11:
 261               		.loc 1 25 26 view .LVU24
 262 00b0 40E0      		ldi r20,0
 263               	.LVL12:
 264               		.loc 1 25 26 view .LVU25
 265 00b2 68E0      		ldi r22,lo8(8)
 266               	.LVL13:
 267               		.loc 1 25 26 view .LVU26
 268 00b4 CE01      		movw r24,r28
 269 00b6 8B59      		subi r24,-101
 270 00b8 9F4F      		sbci r25,-1
 271 00ba 0E94 0000 		call _ZN5USARTC1Ehhhm
 272               	.LVL14:
  26:VoltageStatistics.cpp ****    char buffer[100];		// Buffer zur Zwschischenspeicherung von Zeichenketten
 273               		.loc 1 26 4 is_stmt 1 view .LVU27
  27:VoltageStatistics.cpp ****    
  28:VoltageStatistics.cpp ****    // Ausgabe
  29:VoltageStatistics.cpp ****   if(activ==true)
 274               		.loc 1 29 3 view .LVU28
 275 00be BB20      		tst r11
 276 00c0 01F4      		brne .+2
 277 00c2 00C0      		rjmp .L5
  30:VoltageStatistics.cpp ****   {
  31:VoltageStatistics.cpp ****      
  32:VoltageStatistics.cpp ****      send->data[0]=(lastValue & 0xFF);
 278               		.loc 1 32 6 view .LVU29
  33:VoltageStatistics.cpp **** 	 send->data[1]=((lastValue>>8)&0xFF);
 279               		.loc 1 33 3 view .LVU30
  32:VoltageStatistics.cpp **** 	 send->data[1]=((lastValue>>8)&0xFF);
 280               		.loc 1 32 19 is_stmt 0 view .LVU31
 281 00c4 F601      		movw r30,r12
 282 00c6 6482      		std Z+4,r6
 283 00c8 5582      		std Z+5,r5
  34:VoltageStatistics.cpp **** 
  35:VoltageStatistics.cpp ****      
  36:VoltageStatistics.cpp ****    	 if(can_send_message(send))		// CAN-Nachricht versenden
 284               		.loc 1 36 6 is_stmt 1 view .LVU32
 285               		.loc 1 36 25 is_stmt 0 view .LVU33
 286 00ca C601      		movw r24,r12
 287 00cc 0E94 0000 		call can_send_message
 288               	.LVL15:
 289               		.loc 1 36 6 view .LVU34
 290 00d0 8111      		cpse r24,__zero_reg__
 291 00d2 00C0      		rjmp .L6
 292               	.L8:
  37:VoltageStatistics.cpp **** 		{
  38:VoltageStatistics.cpp **** 		 TGL_BIT(LED_PORT,1);
  39:VoltageStatistics.cpp **** 		 sprintf(buffer,"%ld ms: 0x%x - - %d \n\r",(Zeitstempel_100ms),send->id,lastValue);	// Zeichenket
  40:VoltageStatistics.cpp ****          UART.UsartPuts(buffer);		   // Ausgabe
  41:VoltageStatistics.cpp **** 		 return true;
  42:VoltageStatistics.cpp **** 		}else{
  43:VoltageStatistics.cpp **** 		 return false;
 293               		.loc 1 43 11 view .LVU35
 294 00d4 B12C      		mov r11,__zero_reg__
 295               	.LVL16:
 296               	.L7:
  44:VoltageStatistics.cpp **** 		}
  45:VoltageStatistics.cpp **** 		
  46:VoltageStatistics.cpp **** 	}
  47:VoltageStatistics.cpp ****   
  48:VoltageStatistics.cpp ****    if(activ==false)
  49:VoltageStatistics.cpp ****   {
  50:VoltageStatistics.cpp ****       
  51:VoltageStatistics.cpp ****       
  52:VoltageStatistics.cpp ****       if(can_send_message(send))		// CAN-Nachricht versenden
  53:VoltageStatistics.cpp **** 		{
  54:VoltageStatistics.cpp **** 		 TGL_BIT(LED_PORT,2);
  55:VoltageStatistics.cpp **** 	     sprintf(buffer,"%ld ms: 0x%x \n\r",Zeitstempel_100ms,send->id);	// Zeichenkette erzeugen und 
  56:VoltageStatistics.cpp **** 	     UART.UsartPuts(buffer);		   // Ausgabe		
  57:VoltageStatistics.cpp **** 		 return true;
  58:VoltageStatistics.cpp **** 		}else{
  59:VoltageStatistics.cpp **** 		 return false;
  60:VoltageStatistics.cpp **** 		}
  61:VoltageStatistics.cpp **** 	
  62:VoltageStatistics.cpp **** 	} 
  63:VoltageStatistics.cpp **** 	 return false;
  64:VoltageStatistics.cpp **** 	}
 297               		.loc 1 64 2 view .LVU36
 298 00d6 8B2D      		mov r24,r11
 299               	/* epilogue start */
 300 00d8 C559      		subi r28,-107
 301 00da DF4F      		sbci r29,-1
 302 00dc 0FB6      		in __tmp_reg__,__SREG__
 303 00de F894      		cli
 304 00e0 DEBF      		out __SP_H__,r29
 305 00e2 0FBE      		out __SREG__,__tmp_reg__
 306 00e4 CDBF      		out __SP_L__,r28
 307 00e6 DF91      		pop r29
 308 00e8 CF91      		pop r28
 309 00ea 1F91      		pop r17
 310 00ec 0F91      		pop r16
 311 00ee FF90      		pop r15
 312 00f0 EF90      		pop r14
 313 00f2 DF90      		pop r13
 314 00f4 CF90      		pop r12
 315               	.LVL17:
 316               		.loc 1 64 2 view .LVU37
 317 00f6 BF90      		pop r11
 318 00f8 AF90      		pop r10
 319 00fa 9F90      		pop r9
 320 00fc 8F90      		pop r8
 321 00fe 7F90      		pop r7
 322 0100 6F90      		pop r6
 323 0102 5F90      		pop r5
 324 0104 0895      		ret
 325               	.LVL18:
 326               	.L6:
  38:VoltageStatistics.cpp **** 		 sprintf(buffer,"%ld ms: 0x%x - - %d \n\r",(Zeitstempel_100ms),send->id,lastValue);	// Zeichenket
 327               		.loc 1 38 4 is_stmt 1 view .LVU38
 328 0106 85B3      		in r24,0x15
 329 0108 92E0      		ldi r25,lo8(2)
 330 010a 8927      		eor r24,r25
 331 010c 85BB      		out 0x15,r24
  39:VoltageStatistics.cpp ****          UART.UsartPuts(buffer);		   // Ausgabe
 332               		.loc 1 39 4 view .LVU39
  39:VoltageStatistics.cpp ****          UART.UsartPuts(buffer);		   // Ausgabe
 333               		.loc 1 39 11 is_stmt 0 view .LVU40
 334 010e 5F92      		push r5
 335 0110 6F92      		push r6
 336 0112 F601      		movw r30,r12
 337 0114 8181      		ldd r24,Z+1
 338 0116 8F93      		push r24
 339 0118 8081      		ld r24,Z
 340 011a 8F93      		push r24
 341 011c 7F92      		push r7
 342 011e 8F92      		push r8
 343 0120 9F92      		push r9
 344 0122 AF92      		push r10
 345 0124 80E0      		ldi r24,lo8(.LC0)
 346 0126 90E0      		ldi r25,hi8(.LC0)
 347 0128 9F93      		push r25
 348 012a 8F93      		push r24
 349 012c 8E01      		movw r16,r28
 350 012e 0F5F      		subi r16,-1
 351 0130 1F4F      		sbci r17,-1
 352 0132 1F93      		push r17
 353 0134 0F93      		push r16
 354 0136 0E94 0000 		call sprintf
 355               	.LVL19:
  40:VoltageStatistics.cpp **** 		 return true;
 356               		.loc 1 40 10 is_stmt 1 view .LVU41
  40:VoltageStatistics.cpp **** 		 return true;
 357               		.loc 1 40 24 is_stmt 0 view .LVU42
 358 013a B801      		movw r22,r16
 359 013c CE01      		movw r24,r28
 360 013e 8B59      		subi r24,-101
 361 0140 9F4F      		sbci r25,-1
 362 0142 0E94 0000 		call _ZN5USART9UsartPutsEPc
 363               	.LVL20:
  41:VoltageStatistics.cpp **** 		}else{
 364               		.loc 1 41 4 is_stmt 1 view .LVU43
  41:VoltageStatistics.cpp **** 		}else{
 365               		.loc 1 41 11 is_stmt 0 view .LVU44
 366 0146 0FB6      		in __tmp_reg__,__SREG__
 367 0148 F894      		cli
 368 014a DEBF      		out __SP_H__,r29
 369 014c 0FBE      		out __SREG__,__tmp_reg__
 370 014e CDBF      		out __SP_L__,r28
 371 0150 00C0      		rjmp .L7
 372               	.L5:
  48:VoltageStatistics.cpp ****   {
 373               		.loc 1 48 4 is_stmt 1 view .LVU45
  52:VoltageStatistics.cpp **** 		{
 374               		.loc 1 52 7 view .LVU46
  52:VoltageStatistics.cpp **** 		{
 375               		.loc 1 52 26 is_stmt 0 view .LVU47
 376 0152 C601      		movw r24,r12
 377 0154 0E94 0000 		call can_send_message
 378               	.LVL21:
  52:VoltageStatistics.cpp **** 		{
 379               		.loc 1 52 7 view .LVU48
 380 0158 8823      		tst r24
 381 015a 01F4      		brne .+2
 382 015c 00C0      		rjmp .L8
  54:VoltageStatistics.cpp **** 	     sprintf(buffer,"%ld ms: 0x%x \n\r",Zeitstempel_100ms,send->id);	// Zeichenkette erzeugen und 
 383               		.loc 1 54 4 is_stmt 1 view .LVU49
 384 015e 85B3      		in r24,0x15
 385 0160 94E0      		ldi r25,lo8(4)
 386 0162 8927      		eor r24,r25
 387 0164 85BB      		out 0x15,r24
  55:VoltageStatistics.cpp **** 	     UART.UsartPuts(buffer);		   // Ausgabe		
 388               		.loc 1 55 7 view .LVU50
  55:VoltageStatistics.cpp **** 	     UART.UsartPuts(buffer);		   // Ausgabe		
 389               		.loc 1 55 14 is_stmt 0 view .LVU51
 390 0166 F601      		movw r30,r12
 391 0168 8181      		ldd r24,Z+1
 392 016a 8F93      		push r24
 393 016c 8081      		ld r24,Z
 394 016e 8F93      		push r24
 395 0170 7F92      		push r7
 396 0172 8F92      		push r8
 397 0174 9F92      		push r9
 398 0176 AF92      		push r10
 399 0178 80E0      		ldi r24,lo8(.LC1)
 400 017a 90E0      		ldi r25,hi8(.LC1)
 401 017c 9F93      		push r25
 402 017e 8F93      		push r24
 403 0180 8E01      		movw r16,r28
 404 0182 0F5F      		subi r16,-1
 405 0184 1F4F      		sbci r17,-1
 406 0186 1F93      		push r17
 407 0188 0F93      		push r16
 408 018a 0E94 0000 		call sprintf
 409               	.LVL22:
  56:VoltageStatistics.cpp **** 		 return true;
 410               		.loc 1 56 7 is_stmt 1 view .LVU52
  56:VoltageStatistics.cpp **** 		 return true;
 411               		.loc 1 56 21 is_stmt 0 view .LVU53
 412 018e B801      		movw r22,r16
 413 0190 CE01      		movw r24,r28
 414 0192 8B59      		subi r24,-101
 415 0194 9F4F      		sbci r25,-1
 416 0196 0E94 0000 		call _ZN5USART9UsartPutsEPc
 417               	.LVL23:
  57:VoltageStatistics.cpp **** 		}else{
 418               		.loc 1 57 4 is_stmt 1 view .LVU54
  57:VoltageStatistics.cpp **** 		}else{
 419               		.loc 1 57 11 is_stmt 0 view .LVU55
 420 019a 0FB6      		in __tmp_reg__,__SREG__
 421 019c F894      		cli
 422 019e DEBF      		out __SP_H__,r29
 423 01a0 0FBE      		out __SREG__,__tmp_reg__
 424 01a2 CDBF      		out __SP_L__,r28
 425 01a4 BB24      		clr r11
 426 01a6 B394      		inc r11
 427               	.LVL24:
  57:VoltageStatistics.cpp **** 		}else{
 428               		.loc 1 57 11 view .LVU56
 429 01a8 00C0      		rjmp .L7
 430               		.cfi_endproc
 431               	.LFE17:
 433               	.global	_ZN17VoltageStatistics8addValueEj
 435               	_ZN17VoltageStatistics8addValueEj:
 436               	.LVL25:
 437               	.LFB18:
  65:VoltageStatistics.cpp ****      
  66:VoltageStatistics.cpp ****  void VoltageStatistics::addValue(uint16_t voltageInMillivolt){
 438               		.loc 1 66 63 is_stmt 1 view -0
 439               		.cfi_startproc
 440               	/* prologue: function */
 441               	/* frame size = 0 */
 442               	/* stack size = 0 */
 443               	.L__stack_usage = 0
 444               		.loc 1 66 63 is_stmt 0 view .LVU58
 445 01aa FC01      		movw r30,r24
  67:VoltageStatistics.cpp **** 
  68:VoltageStatistics.cpp ****        
  69:VoltageStatistics.cpp ****     // Alles stellen nach links verschieben und den neuen Wert an Stelle 10 speichern
  70:VoltageStatistics.cpp ****     for(uint8_t i=0;i<valueSize ;i++)
 446               		.loc 1 70 5 is_stmt 1 view .LVU59
 447               	.LVL26:
 448               	.LBB3:
 449               		.loc 1 70 22 view .LVU60
 450 01ac DC01      		movw r26,r24
 451 01ae 4496      		adiw r24,20
 452               	.LVL27:
 453               	.L13:
  71:VoltageStatistics.cpp **** 	{
  72:VoltageStatistics.cpp ****         values[i] = values[i+1];
 454               		.loc 1 72 9 discriminator 2 view .LVU61
 455               		.loc 1 72 19 is_stmt 0 discriminator 2 view .LVU62
 456 01b0 1296      		adiw r26,2
 457 01b2 2D91      		ld r18,X+
 458 01b4 3C91      		ld r19,X
 459 01b6 1397      		sbiw r26,2+1
 460 01b8 2D93      		st X+,r18
 461 01ba 3D93      		st X+,r19
  70:VoltageStatistics.cpp **** 	{
 462               		.loc 1 70 5 is_stmt 1 discriminator 2 view .LVU63
  70:VoltageStatistics.cpp **** 	{
 463               		.loc 1 70 22 discriminator 2 view .LVU64
 464 01bc A817      		cp r26,r24
 465 01be B907      		cpc r27,r25
 466 01c0 01F4      		brne .L13
 467               	.LBE3:
  73:VoltageStatistics.cpp **** 
  74:VoltageStatistics.cpp **** 		}
  75:VoltageStatistics.cpp ****     values[valueSize-1] = voltageInMillivolt;
 468               		.loc 1 75 5 view .LVU65
 469               		.loc 1 75 25 is_stmt 0 view .LVU66
 470 01c2 628B      		std Z+18,r22
 471 01c4 738B      		std Z+19,r23
 472               	/* epilogue start */
  76:VoltageStatistics.cpp **** 
  77:VoltageStatistics.cpp **** 
  78:VoltageStatistics.cpp **** 
  79:VoltageStatistics.cpp ****  }    
 473               		.loc 1 79 2 view .LVU67
 474 01c6 0895      		ret
 475               		.cfi_endproc
 476               	.LFE18:
 478               		.section	.rodata.str1.1
 479               	.LC2:
 480 0027 6D69 7474 		.string	"mittlere Spannung: %d mV; kleinste Spannung: %d mV; groesste Spannung: %d mV \n\r"
 480      6C65 7265 
 480      2053 7061 
 480      6E6E 756E 
 480      673A 2025 
 481               		.text
 482               	.global	_ZN17VoltageStatistics14showStatisticsEv
 484               	_ZN17VoltageStatistics14showStatisticsEv:
 485               	.LVL28:
 486               	.LFB19:
  80:VoltageStatistics.cpp **** 
  81:VoltageStatistics.cpp **** void VoltageStatistics::showStatistics(){
 487               		.loc 1 81 41 is_stmt 1 view -0
 488               		.cfi_startproc
 489               		.loc 1 81 41 is_stmt 0 view .LVU69
 490 01c8 CF92      		push r12
 491               	.LCFI25:
 492               		.cfi_def_cfa_offset 3
 493               		.cfi_offset 12, -2
 494 01ca DF92      		push r13
 495               	.LCFI26:
 496               		.cfi_def_cfa_offset 4
 497               		.cfi_offset 13, -3
 498 01cc EF92      		push r14
 499               	.LCFI27:
 500               		.cfi_def_cfa_offset 5
 501               		.cfi_offset 14, -4
 502 01ce FF92      		push r15
 503               	.LCFI28:
 504               		.cfi_def_cfa_offset 6
 505               		.cfi_offset 15, -5
 506 01d0 0F93      		push r16
 507               	.LCFI29:
 508               		.cfi_def_cfa_offset 7
 509               		.cfi_offset 16, -6
 510 01d2 1F93      		push r17
 511               	.LCFI30:
 512               		.cfi_def_cfa_offset 8
 513               		.cfi_offset 17, -7
 514 01d4 CF93      		push r28
 515               	.LCFI31:
 516               		.cfi_def_cfa_offset 9
 517               		.cfi_offset 28, -8
 518 01d6 DF93      		push r29
 519               	.LCFI32:
 520               		.cfi_def_cfa_offset 10
 521               		.cfi_offset 29, -9
 522 01d8 CDB7      		in r28,__SP_L__
 523 01da DEB7      		in r29,__SP_H__
 524               	.LCFI33:
 525               		.cfi_def_cfa_register 28
 526 01dc C550      		subi r28,5
 527 01de D140      		sbci r29,1
 528               	.LCFI34:
 529               		.cfi_def_cfa_offset 271
 530 01e0 0FB6      		in __tmp_reg__,__SREG__
 531 01e2 F894      		cli
 532 01e4 DEBF      		out __SP_H__,r29
 533 01e6 0FBE      		out __SREG__,__tmp_reg__
 534 01e8 CDBF      		out __SP_L__,r28
 535               	/* prologue: function */
 536               	/* frame size = 261 */
 537               	/* stack size = 269 */
 538               	.L__stack_usage = 269
 539 01ea 6C01      		movw r12,r24
  82:VoltageStatistics.cpp ****     USART UART(8,0,1,57600);	// USART init 8 Zeichenbits , keien Paritätsbits , 1 Stoppbit, 9600 Z
 540               		.loc 1 82 5 is_stmt 1 view .LVU70
 541               		.loc 1 82 27 is_stmt 0 view .LVU71
 542 01ec E12C      		mov r14,__zero_reg__
 543 01ee 11EE      		ldi r17,lo8(-31)
 544 01f0 F12E      		mov r15,r17
 545 01f2 00E0      		ldi r16,0
 546 01f4 10E0      		ldi r17,0
 547               	.LVL29:
 548               		.loc 1 82 27 view .LVU72
 549 01f6 21E0      		ldi r18,lo8(1)
 550 01f8 40E0      		ldi r20,0
 551 01fa 68E0      		ldi r22,lo8(8)
 552 01fc CE01      		movw r24,r28
 553 01fe 8550      		subi r24,5
 554 0200 9F4F      		sbci r25,-1
 555 0202 0E94 0000 		call _ZN5USARTC1Ehhhm
 556               	.LVL30:
  83:VoltageStatistics.cpp ****      char buffer[250];
 557               		.loc 1 83 6 is_stmt 1 view .LVU73
  84:VoltageStatistics.cpp **** 	 uint16_t min = 65535;
 558               		.loc 1 84 3 view .LVU74
  85:VoltageStatistics.cpp **** 	 uint16_t max = 0;
 559               		.loc 1 85 3 view .LVU75
  86:VoltageStatistics.cpp **** 	 uint32_t summe = 0;
 560               		.loc 1 86 3 view .LVU76
  87:VoltageStatistics.cpp **** 	 uint16_t mittelwert;
 561               		.loc 1 87 3 view .LVU77
  88:VoltageStatistics.cpp **** 
  89:VoltageStatistics.cpp **** 
  90:VoltageStatistics.cpp **** 	for(uint8_t i=0;i<valueSize;i++)
 562               		.loc 1 90 2 view .LVU78
 563               	.LBB4:
 564               		.loc 1 90 19 view .LVU79
 565 0206 F601      		movw r30,r12
 566 0208 B601      		movw r22,r12
 567 020a 6C5E      		subi r22,-20
 568 020c 7F4F      		sbci r23,-1
 569               	.LBE4:
  86:VoltageStatistics.cpp **** 	 uint16_t mittelwert;
 570               		.loc 1 86 12 is_stmt 0 view .LVU80
 571 020e CE5F      		subi r28,lo8(-258)
 572 0210 DE4F      		sbci r29,hi8(-258)
 573 0212 1882      		st Y,__zero_reg__
 574 0214 1982      		std Y+1,__zero_reg__
 575 0216 1A82      		std Y+2,__zero_reg__
 576 0218 1B82      		std Y+3,__zero_reg__
 577 021a C250      		subi r28,lo8(258)
 578 021c D140      		sbci r29,hi8(258)
  85:VoltageStatistics.cpp **** 	 uint32_t summe = 0;
 579               		.loc 1 85 12 view .LVU81
 580 021e 50E0      		ldi r21,0
 581 0220 40E0      		ldi r20,0
  84:VoltageStatistics.cpp **** 	 uint16_t max = 0;
 582               		.loc 1 84 12 view .LVU82
 583 0222 2FEF      		ldi r18,lo8(-1)
 584 0224 3FEF      		ldi r19,lo8(-1)
 585               	.LVL31:
 586               	.L18:
 587               	.LBB5:
  91:VoltageStatistics.cpp **** 	{
  92:VoltageStatistics.cpp **** 	  	summe=summe+values[i];
 588               		.loc 1 92 5 is_stmt 1 view .LVU83
 589               		.loc 1 92 25 is_stmt 0 view .LVU84
 590 0226 8191      		ld r24,Z+
 591 0228 9191      		ld r25,Z+
 592               		.loc 1 92 10 view .LVU85
 593 022a CE5F      		subi r28,lo8(-258)
 594 022c DE4F      		sbci r29,hi8(-258)
 595 022e E880      		ld r14,Y
 596 0230 F980      		ldd r15,Y+1
 597 0232 0A81      		ldd r16,Y+2
 598 0234 1B81      		ldd r17,Y+3
 599 0236 C250      		subi r28,lo8(258)
 600 0238 D140      		sbci r29,hi8(258)
 601 023a E80E      		add r14,r24
 602 023c F91E      		adc r15,r25
 603 023e 011D      		adc r16,__zero_reg__
 604 0240 111D      		adc r17,__zero_reg__
 605 0242 CE5F      		subi r28,lo8(-258)
 606 0244 DE4F      		sbci r29,hi8(-258)
 607 0246 E882      		st Y,r14
 608 0248 F982      		std Y+1,r15
 609 024a 0A83      		std Y+2,r16
 610 024c 1B83      		std Y+3,r17
 611 024e C250      		subi r28,lo8(258)
 612 0250 D140      		sbci r29,hi8(258)
 613               	.LVL32:
  93:VoltageStatistics.cpp **** 		if(values[i] < min) {
 614               		.loc 1 93 3 is_stmt 1 view .LVU86
 615 0252 8217      		cp r24,r18
 616 0254 9307      		cpc r25,r19
 617 0256 00F4      		brsh .L16
 618 0258 9C01      		movw r18,r24
 619               	.LVL33:
 620               	.L16:
  94:VoltageStatistics.cpp **** 			min = values[i];
  95:VoltageStatistics.cpp **** 			}
  96:VoltageStatistics.cpp **** 		if(values[i] > max) {
 621               		.loc 1 96 3 view .LVU87
 622 025a 4817      		cp r20,r24
 623 025c 5907      		cpc r21,r25
 624 025e 00F4      		brsh .L17
 625 0260 AC01      		movw r20,r24
 626               	.LVL34:
 627               	.L17:
  90:VoltageStatistics.cpp **** 	{
 628               		.loc 1 90 2 view .LVU88
  90:VoltageStatistics.cpp **** 	{
 629               		.loc 1 90 19 view .LVU89
 630 0262 E617      		cp r30,r22
 631 0264 F707      		cpc r31,r23
 632 0266 01F4      		brne .L18
 633               	.LBE5:
  97:VoltageStatistics.cpp **** 			max = values[i];
  98:VoltageStatistics.cpp **** 			}	
  99:VoltageStatistics.cpp ****         
 100:VoltageStatistics.cpp **** 
 101:VoltageStatistics.cpp **** 	}
 102:VoltageStatistics.cpp **** 	mittelwert= (uint16_t)((summe/((uint32_t)valueSize)));
 634               		.loc 1 102 2 view .LVU90
 635               	.LVL35:
 103:VoltageStatistics.cpp **** 	sprintf(buffer,"mittlere Spannung: %d mV; kleinste Spannung: %d mV; groesste Spannung: %d mV \n\r"
 636               		.loc 1 103 2 view .LVU91
 637               		.loc 1 103 9 is_stmt 0 view .LVU92
 638 0268 5F93      		push r21
 639 026a 4F93      		push r20
 640 026c 3F93      		push r19
 641 026e 2F93      		push r18
 102:VoltageStatistics.cpp **** 	sprintf(buffer,"mittlere Spannung: %d mV; kleinste Spannung: %d mV; groesste Spannung: %d mV \n\r"
 642               		.loc 1 102 31 view .LVU93
 643 0270 CE5F      		subi r28,lo8(-258)
 644 0272 DE4F      		sbci r29,hi8(-258)
 645 0274 6881      		ld r22,Y
 646 0276 7981      		ldd r23,Y+1
 647 0278 8A81      		ldd r24,Y+2
 648 027a 9B81      		ldd r25,Y+3
 649 027c C250      		subi r28,lo8(258)
 650 027e D140      		sbci r29,hi8(258)
 651 0280 2AE0      		ldi r18,lo8(10)
 652 0282 30E0      		ldi r19,0
 653 0284 40E0      		ldi r20,0
 654 0286 50E0      		ldi r21,0
 655               	.LVL36:
 102:VoltageStatistics.cpp **** 	sprintf(buffer,"mittlere Spannung: %d mV; kleinste Spannung: %d mV; groesste Spannung: %d mV \n\r"
 656               		.loc 1 102 31 view .LVU94
 657 0288 0E94 0000 		call __udivmodsi4
 658               		.loc 1 103 9 view .LVU95
 659 028c 3F93      		push r19
 660 028e 2F93      		push r18
 661 0290 80E0      		ldi r24,lo8(.LC2)
 662 0292 90E0      		ldi r25,hi8(.LC2)
 663 0294 9F93      		push r25
 664 0296 8F93      		push r24
 665 0298 8E01      		movw r16,r28
 666 029a 0F5F      		subi r16,-1
 667 029c 1F4F      		sbci r17,-1
 668 029e 1F93      		push r17
 669 02a0 0F93      		push r16
 670 02a2 0E94 0000 		call sprintf
 671               	.LVL37:
 104:VoltageStatistics.cpp **** 	UART.UsartPuts(buffer);		   // Ausgabe
 672               		.loc 1 104 2 is_stmt 1 view .LVU96
 673               		.loc 1 104 16 is_stmt 0 view .LVU97
 674 02a6 B801      		movw r22,r16
 675 02a8 CE01      		movw r24,r28
 676 02aa 8550      		subi r24,5
 677 02ac 9F4F      		sbci r25,-1
 678 02ae 0E94 0000 		call _ZN5USART9UsartPutsEPc
 679               	.LVL38:
 105:VoltageStatistics.cpp **** }...
 680               		.loc 1 105 1 view .LVU98
 681 02b2 0FB6      		in __tmp_reg__,__SREG__
 682 02b4 F894      		cli
 683 02b6 DEBF      		out __SP_H__,r29
 684 02b8 0FBE      		out __SREG__,__tmp_reg__
 685 02ba CDBF      		out __SP_L__,r28
 686               	/* epilogue start */
 687 02bc CB5F      		subi r28,-5
 688 02be DE4F      		sbci r29,-2
 689 02c0 0FB6      		in __tmp_reg__,__SREG__
 690 02c2 F894      		cli
 691 02c4 DEBF      		out __SP_H__,r29
 692 02c6 0FBE      		out __SREG__,__tmp_reg__
 693 02c8 CDBF      		out __SP_L__,r28
 694 02ca DF91      		pop r29
 695 02cc CF91      		pop r28
 696 02ce 1F91      		pop r17
 697 02d0 0F91      		pop r16
 698 02d2 FF90      		pop r15
 699 02d4 EF90      		pop r14
 700 02d6 DF90      		pop r13
 701 02d8 CF90      		pop r12
 702               	.LVL39:
 703               		.loc 1 105 1 view .LVU99
 704 02da 0895      		ret
 705               		.cfi_endproc
 706               	.LFE19:
 708               	.Letext0:
 709               		.file 2 "/opt/homebrew/Cellar/avr-gcc@9/9.3.0_3/avr/include/stdint.h"
 710               		.file 3 "/opt/homebrew/Cellar/avr-gcc@9/9.3.0_3/lib/avr-gcc/9/gcc/avr/9.3.0/include/stddef.h"
 711               		.file 4 "/opt/homebrew/Cellar/avr-gcc@9/9.3.0_3/avr/include/stdio.h"
 712               		.file 5 "/opt/homebrew/Cellar/avr-gcc@9/9.3.0_3/avr/include/stdlib.h"
 713               		.file 6 "ATMega32_utility_bib.h"
 714               		.file 7 "avr-can-lib/can.h"
 715               		.file 8 "VoltageStatistics.h"